Certificate:
    Data:
        Version: 3 (0x2)
        Serial Number:
            df:85:26:fe:e1:81:1d:6b:44:49:70:fa:7f:47:e8:9a
    Signature Algorithm: sha256WithRSAEncryption
        Issuer: CN=OpenVPN Server
        Validity
            Not Before: May 18 11:43:01 2018 GMT
            Not After : May 15 11:43:01 2028 GMT
        Subject: CN=Alpine-Client
        Subject Public Key Info:
            Public Key Algorithm: rsaEncryption
                Public-Key: (2048 bit)
                Modulus:
                    00:a8:03:9a:71:a6:c8:43:bb:91:46:35:5f:a6:cd:
                    0d:af:1e:f4:a6:9c:68:27:db:d5:e4:36:ca:4e:59:
                    01:45:c6:42:6d:71:53:de:fb:96:98:ed:3c:59:84:
                    0d:af:a5:46:4e:9f:d6:48:96:75:6e:03:5d:ab:4b:
                    fa:ce:6e:72:31:98:04:54:be:2e:f2:a8:0f:c9:15:
                    a3:91:bc:c2:a0:7f:52:b6:47:73:ca:09:ef:2f:cd:
                    47:91:4b:59:10:06:09:a8:77:34:06:dc:69:49:a5:
                    0a:a3:99:a8:c3:1c:eb:3c:f8:2e:48:de:02:02:1b:
                    a9:df:aa:71:e0:17:0d:51:44:6b:5a:92:d5:24:88:
                    56:7d:ec:08:eb:3a:8e:75:ef:49:bc:cb:da:61:32:
                    05:1c:68:4b:16:cd:14:98:d3:34:9e:e0:49:3e:73:
                    72:ca:92:86:69:77:f0:82:a5:3f:14:be:f1:35:27:
                    6a:da:9e:d1:eb:f1:18:2d:95:26:b4:8e:03:62:fd:
                    43:f0:c3:5c:b2:48:4e:bb:3c:a3:c1:9e:4f:23:c2:
                    d3:5e:18:38:39:b1:1a:ec:ae:7b:f7:63:1a:86:dc:
                    b0:10:99:57:79:50:14:0b:e5:23:fb:f4:de:62:75:
                    9d:fa:f9:9f:c6:7c:23:4d:4e:14:d9:da:19:41:4d:
                    e8:af
                Exponent: 65537 (0x10001)
        X509v3 extensions:
            X509v3 Basic Constraints: 
                CA:FALSE
            X509v3 Subject Key Identifier: 
                C5:E7:DC:7E:04:33:76:E2:70:4D:20:2B:2A:8E:2F:71:EC:E6:BC:73
            X509v3 Authority Key Identifier: 
                keyid:90:89:6C:B2:95:ED:F4:EE:1D:90:CE:DE:0C:CC:A5:64:9C:99:E4:D4
                DirName:/CN=OpenVPN Server
                serial:C8:1A:2E:99:E5:DA:64:3F

            X509v3 Extended Key Usage: 
                TLS Web Client Authentication
            X509v3 Key Usage: 
                Digital Signature
    Signature Algorithm: sha256WithRSAEncryption
         0d:5b:87:23:9a:76:cc:81:95:1f:84:1f:50:22:3b:91:44:23:
         bc:22:57:e4:34:57:e2:01:5a:49:4a:25:92:e2:ff:38:27:dd:
         f0:00:2a:8d:e0:9d:0b:5e:0e:8c:84:17:47:64:63:d8:7d:1b:
         85:42:5d:0d:5f:1d:49:7f:38:1c:87:c7:6e:13:53:8e:92:5f:
         f1:39:00:0a:35:14:f6:df:03:43:69:7d:75:50:f8:57:46:a0:
         14:98:6c:4d:69:15:65:5e:bf:a3:98:c7:1a:f2:20:4e:b0:09:
         93:93:e4:46:89:8f:8c:34:c5:f8:a9:48:7a:93:30:42:f5:ab:
         c5:10:b6:02:a7:3f:1b:cb:71:62:12:d6:00:96:db:2a:6d:31:
         c2:16:43:12:f4:71:3b:7e:8d:80:00:fc:44:56:2e:2a:98:ba:
         c2:04:fe:0d:8d:09:98:c8:bc:6f:b6:da:58:8f:be:27:45:21:
         11:80:99:d2:83:95:cd:a9:9e:f8:4a:e5:f9:03:96:9c:a5:c6:
         04:ad:95:c2:1e:32:ef:1e:3c:52:74:7b:70:5e:13:66:c2:2e:
         af:e5:4d:c3:02:39:8a:d2:d4:26:25:4b:fd:52:a8:a1:5c:70:
         40:87:98:8f:e3:b3:b0:25:56:62:eb:8c:f5:20:ef:3a:1c:33:
         e8:cd:67:29
-----BEGIN CERTIFICATE-----
MIIDVzCCAj+gAwIBAgIRAN+FJv7hgR1rRElw+n9H6JowDQYJKoZIhvcNAQELBQAw
GTEXMBUGA1UEAwwOT3BlblZQTiBTZXJ2ZXIwHhcNMTgwNTE4MTE0MzAxWhcNMjgw
NTE1MTE0MzAxWjAYMRYwFAYDVQQDDA1BbHBpbmUtQ2xpZW50MIIBIjANBgkqhkiG
9w0BAQEFAAOCAQ8AMIIBCgKCAQEAqAOacabIQ7uRRjVfps0Nrx70ppxoJ9vV5DbK
TlkBRcZCbXFT3vuWmO08WYQNr6VGTp/WSJZ1bgNdq0v6zm5yMZgEVL4u8qgPyRWj
kbzCoH9StkdzygnvL81HkUtZEAYJqHc0BtxpSaUKo5mowxzrPPguSN4CAhup36px
4BcNUURrWpLVJIhWfewI6zqOde9JvMvaYTIFHGhLFs0UmNM0nuBJPnNyypKGaXfw
gqU/FL7xNSdq2p7R6/EYLZUmtI4DYv1D8MNcskhOuzyjwZ5PI8LTXhg4ObEa7K57
92MahtywEJlXeVAUC+Uj+/TeYnWd+vmfxnwjTU4U2doZQU3orwIDAQABo4GaMIGX
MAkGA1UdEwQCMAAwHQYDVR0OBBYEFMXn3H4EM3bicE0gKyqOL3Hs5rxzMEkGA1Ud
IwRCMECAFJCJbLKV7fTuHZDO3gzMpWScmeTUoR2kGzAZMRcwFQYDVQQDDA5PcGVu
VlBOIFNlcnZlcoIJAMgaLpnl2mQ/MBMGA1UdJQQMMAoGCCsGAQUFBwMCMAsGA1Ud
DwQEAwIHgDANBgkqhkiG9w0BAQsFAAOCAQEADVuHI5p2zIGVH4QfUCI7kUQjvCJX
5DRX4gFaSUolkuL/OCfd8AAqjeCdC14OjIQXR2Rj2H0bhUJdDV8dSX84HIfHbhNT
jpJf8TkACjUU9t8DQ2l9dVD4V0agFJhsTWkVZV6/o5jHGvIgTrAJk5PkRomPjDTF
+KlIepMwQvWrxRC2Aqc/G8txYhLWAJbbKm0xwhZDEvRxO36NgAD8RFYuKpi6wgT+
DY0JmMi8b7baWI++J0UhEYCZ0oOVzame+Erl+QOWnKXGBK2Vwh4y7x48UnR7cF4T
ZsIur+VNwwI5itLUJiVL/VKooVxwQIeYj+OzsCVWYuuM9SDvOhwz6M1nKQ==
-----END CERTIFICATE-----
